target datalayout = "e-m:e-p270:32:32-p271:32:32-p272:64:64-i64:64-i128:128-f80:128-n8:16:32:64-S128"
target triple = "x86_64-pc-linux-gnu"

@.str = private unnamed_addr constant [41 x i8] c"../openssl/test/evp_pkey_provided_test.c\00", align 1
@.str.1 = private unnamed_addr constant [28 x i8] c"Error parsing test options\0A\00", align 1
@.str.2 = private unnamed_addr constant [31 x i8] c"datadir = test_get_argument(0)\00", align 1
@datadir = internal global ptr null, align 8
@.str.3 = private unnamed_addr constant [26 x i8] c"test_evp_pkey_ctx_dup_kdf\00", align 1
@.str.4 = private unnamed_addr constant [33 x i8] c"test_evp_pkey_get_bn_param_large\00", align 1
@.str.5 = private unnamed_addr constant [18 x i8] c"test_fromdata_rsa\00", align 1
@.str.6 = private unnamed_addr constant [39 x i8] c"test_fromdata_rsa_derive_from_pq_sp800\00", align 1
@.str.7 = private unnamed_addr constant [44 x i8] c"test_fromdata_rsa_derive_from_pq_multiprime\00", align 1
@.str.8 = private unnamed_addr constant [27 x i8] c"test_fromdata_dh_fips186_4\00", align 1
@.str.9 = private unnamed_addr constant [29 x i8] c"test_fromdata_dh_named_group\00", align 1
@.str.10 = private unnamed_addr constant [15 x i8] c"test_check_dsa\00", align 1
@.str.11 = private unnamed_addr constant [28 x i8] c"test_fromdata_dsa_fips186_4\00", align 1
@.str.12 = private unnamed_addr constant [18 x i8] c"test_fromdata_ecx\00", align 1
@.str.13 = private unnamed_addr constant [17 x i8] c"test_fromdata_ec\00", align 1
@.str.14 = private unnamed_addr constant [25 x i8] c"test_ec_dup_no_operation\00", align 1
@.str.15 = private unnamed_addr constant [29 x i8] c"test_ec_dup_keygen_operation\00", align 1

; Function Attrs: nounwind uwtable
define dso_local i32 @setup_tests() #0 {
  %1 = alloca i32, align 4
  %2 = call i32 @test_skip_common_options()
  %3 = icmp ne i32 %2, 0
  br i1 %3, label %5, label %4

4:                                                ; preds = %0
  call void (ptr, i32, ptr, ...) @test_error(ptr noundef @.str, i32 noundef 2186, ptr noundef @.str.1)
  store i32 0, ptr %1, align 4
  br label %11

5:                                                ; preds = %0
  %6 = call ptr @test_get_argument(i64 noundef 0)
  store ptr %6, ptr @datadir, align 8, !tbaa !4
  %7 = call i32 @test_ptr(ptr noundef @.str, i32 noundef 2190, ptr noundef @.str.2, ptr noundef %6)
  %8 = icmp ne i32 %7, 0
  br i1 %8, label %10, label %9

9:                                                ; preds = %5
  store i32 0, ptr %1, align 4
  br label %11

10:                                               ; preds = %5
  call void @add_test(ptr noundef @.str.3, ptr noundef @test_evp_pkey_ctx_dup_kdf)
  call void @add_test(ptr noundef @.str.4, ptr noundef @test_evp_pkey_get_bn_param_large)
  call void @add_test(ptr noundef @.str.5, ptr noundef @test_fromdata_rsa)
  call void @add_test(ptr noundef @.str.6, ptr noundef @test_fromdata_rsa_derive_from_pq_sp800)
  call void @add_test(ptr noundef @.str.7, ptr noundef @test_fromdata_rsa_derive_from_pq_multiprime)
  call void @add_test(ptr noundef @.str.8, ptr noundef @test_fromdata_dh_fips186_4)
  call void @add_test(ptr noundef @.str.9, ptr noundef @test_fromdata_dh_named_group)
  call void @add_test(ptr noundef @.str.10, ptr noundef @test_check_dsa)
  call void @add_test(ptr noundef @.str.11, ptr noundef @test_fromdata_dsa_fips186_4)
  call void @add_all_tests(ptr noundef @.str.12, ptr noundef @test_fromdata_ecx, i32 noundef 12, i32 noundef 1)
  call void @add_test(ptr noundef @.str.13, ptr noundef @test_fromdata_ec)
  call void @add_test(ptr noundef @.str.14, ptr noundef @test_ec_dup_no_operation)
  call void @add_test(ptr noundef @.str.15, ptr noundef @test_ec_dup_keygen_operation)
  store i32 1, ptr %1, align 4
  br label %11

11:                                               ; preds = %10, %9, %4
  %12 = load i32, ptr %1, align 4
  ret i32 %12
}