; Function Attrs: nounwind uwtable
define dso_local range(i32 0, 2) i32 @setup_tests() local_unnamed_addr #0 {
  %1 = tail call i32 @test_skip_common_options() #6
  %.not = icmp eq i32 %1, 0
  br i1 %.not, label %2, label %3

2:                                                ; preds = %0
  tail call void (ptr, i32, ptr, ...) @test_error(ptr noundef nonnull @.str, i32 noundef 2186, ptr noundef nonnull @.str.1) #6
  br label %7

3:                                                ; preds = %0
  %4 = tail call ptr @test_get_argument(i64 noundef 0) #6
  store ptr %4, ptr @datadir, align 8, !tbaa !4
  %5 = tail call i32 @test_ptr(ptr noundef nonnull @.str, i32 noundef 2190, ptr noundef nonnull @.str.2, ptr noundef %4) #6
  %.not1 = icmp eq i32 %5, 0
  br i1 %.not1, label %7, label %6

6:                                                ; preds = %3
  tail call void @add_test(ptr noundef nonnull @.str.3, ptr noundef nonnull @test_evp_pkey_ctx_dup_kdf) #6
  tail call void @add_test(ptr noundef nonnull @.str.4, ptr noundef nonnull @test_evp_pkey_get_bn_param_large) #6
  tail call void @add_test(ptr noundef nonnull @.str.5, ptr noundef nonnull @test_fromdata_rsa) #6
  tail call void @add_test(ptr noundef nonnull @.str.6, ptr noundef nonnull @test_fromdata_rsa_derive_from_pq_sp800) #6
  tail call void @add_test(ptr noundef nonnull @.str.7, ptr noundef nonnull @test_fromdata_rsa_derive_from_pq_multiprime) #6
  tail call void @add_test(ptr noundef nonnull @.str.8, ptr noundef nonnull @test_fromdata_dh_fips186_4) #6
  tail call void @add_test(ptr noundef nonnull @.str.9, ptr noundef nonnull @test_fromdata_dh_named_group) #6
  tail call void @add_test(ptr noundef nonnull @.str.10, ptr noundef nonnull @test_check_dsa) #6
  tail call void @add_test(ptr noundef nonnull @.str.11, ptr noundef nonnull @test_fromdata_dsa_fips186_4) #6
  tail call void @add_all_tests(ptr noundef nonnull @.str.12, ptr noundef nonnull @test_fromdata_ecx, i32 noundef 12, i32 noundef 1) #6
  tail call void @add_test(ptr noundef nonnull @.str.13, ptr noundef nonnull @test_fromdata_ec) #6
  tail call void @add_test(ptr noundef nonnull @.str.14, ptr noundef nonnull @test_ec_dup_no_operation) #6
  tail call void @add_test(ptr noundef nonnull @.str.15, ptr noundef nonnull @test_ec_dup_keygen_operation) #6
  br label %7

7:                                                ; preds = %3, %6, %2
  %.0 = phi i32 [ 1, %6 ], [ 0, %2 ], [ 0, %3 ]
  ret i32 %.0
}